; Function Attrs: nounwind uwtable
define internal fastcc double @calc_hist_selectivity_scalar(ptr noundef %0, ptr noundef nonnull %1, ptr noundef %2, i32 noundef range(i32 2, -2147483648) %3, i1 noundef zeroext %4) unnamed_addr #0 {
  %6 = add nsw i32 %3, -1
  br label %7

7:                                                ; preds = %7, %5
  %.020.i = phi i32 [ -1, %5 ], [ %.1.i, %7 ]
  %.01519.i = phi i32 [ %6, %5 ], [ %.116.i, %7 ]
  %8 = add nsw i32 %.020.i, 1
  %9 = add i32 %8, %.01519.i
  %10 = sdiv i32 %9, 2
  %11 = sext i32 %10 to i64
  %12 = getelementptr inbounds %struct.RangeBound, ptr %2, i64 %11
  %13 = tail call i32 @range_cmp_bounds(ptr noundef %0, ptr noundef %12, ptr noundef nonnull %1) #10
  %14 = icmp slt i32 %13, 0
  %15 = icmp eq i32 %13, 0
  %or.cond.i = and i1 %4, %15
  %or.cond18.i = or i1 %14, %or.cond.i
  %16 = add nsw i32 %10, -1
  %.116.i = select i1 %or.cond18.i, i32 %.01519.i, i32 %16
  %.1.i = select i1 %or.cond18.i, i32 %10, i32 %.020.i
  %17 = icmp slt i32 %.1.i, %.116.i
  br i1 %17, label %7, label %rbound_bsearch.exit, !llvm.loop !8

rbound_bsearch.exit:                              ; preds = %7
  %18 = tail call i32 @llvm.smax.i32(i32 %.1.i, i32 0)
  %19 = uitofp nneg i32 %18 to double
  %20 = uitofp nneg i32 %6 to double
  %21 = fdiv double %19, %20
  %22 = icmp sgt i32 %.1.i, -1
  %23 = icmp slt i32 %.1.i, %6
  %or.cond = select i1 %22, i1 %23, i1 false
  br i1 %or.cond, label %24, label %80

24:                                               ; preds = %rbound_bsearch.exit
  %25 = zext nneg i32 %.1.i to i64
  %26 = getelementptr inbounds nuw %struct.RangeBound, ptr %2, i64 %25
  %27 = getelementptr inbounds nuw i8, ptr %26, i64 16
  %28 = getelementptr inbounds nuw i8, ptr %0, i64 392
  %29 = getelementptr inbounds nuw i8, ptr %0, i64 400
  %30 = load i32, ptr %29, align 8
  %.not.i = icmp eq i32 %30, 0
  %31 = getelementptr inbounds nuw i8, ptr %26, i64 8
  %32 = load i8, ptr %31, align 8, !range !4, !noundef !5
  %33 = trunc nuw i8 %32 to i1
  %34 = getelementptr inbounds nuw i8, ptr %26, i64 24
  %35 = load i8, ptr %34, align 8, !range !4, !noundef !5
  %36 = trunc nuw i8 %35 to i1
  br i1 %33, label %62, label %37

37:                                               ; preds = %24
  %38 = getelementptr inbounds nuw i8, ptr %1, i64 8
  %39 = load i8, ptr %38, align 8, !range !4, !noundef !5
  %40 = trunc nuw i8 %39 to i1
  br i1 %36, label %72, label %41

41:                                               ; preds = %37
  %brmerge.i = select i1 %40, i1 true, i1 %.not.i
  br i1 %brmerge.i, label %get_position.exit, label %42

42:                                               ; preds = %41
  %43 = getelementptr inbounds nuw i8, ptr %0, i64 292
  %44 = load i32, ptr %43, align 4
  %45 = load i64, ptr %27, align 8
  %46 = load i64, ptr %26, align 8
  %47 = tail call i64 @FunctionCall2Coll(ptr noundef nonnull %28, i32 noundef %44, i64 noundef %45, i64 noundef %46) #10
  %48 = bitcast i64 %47 to double
  %or.cond.i20 = fcmp ule double %48, 0.000000e+00
  br i1 %or.cond.i20, label %get_position.exit, label %49

49:                                               ; preds = %42
  %50 = load i32, ptr %43, align 4
  %51 = load i64, ptr %1, align 8
  %52 = load i64, ptr %26, align 8
  %53 = tail call i64 @FunctionCall2Coll(ptr noundef nonnull %28, i32 noundef %50, i64 noundef %51, i64 noundef %52) #10
  %54 = bitcast i64 %53 to double
  %55 = fdiv double %54, %48
  %56 = fcmp uno double %55, 0.000000e+00
  br i1 %56, label %get_position.exit, label %57

57:                                               ; preds = %49
  %58 = fcmp ogt double %55, 0.000000e+00
  %59 = select i1 %58, double %55, double 0.000000e+00
  %60 = fcmp olt double %59, 1.000000e+00
  %61 = select i1 %60, double %59, double 1.000000e+00
  br label %get_position.exit

62:                                               ; preds = %24
  br i1 %36, label %get_position.exit, label %63

63:                                               ; preds = %62
  %64 = getelementptr inbounds nuw i8, ptr %1, i64 8
  %65 = load i8, ptr %64, align 8, !range !4, !noundef !5
  %66 = trunc nuw i8 %65 to i1
  br i1 %66, label %67, label %get_position.exit

67:                                               ; preds = %63
  %68 = getelementptr inbounds nuw i8, ptr %1, i64 10
  %69 = load i8, ptr %68, align 2, !range !4, !noundef !5
  %70 = trunc nuw i8 %69 to i1
  %71 = select i1 %70, double 0.000000e+00, double 1.000000e+00
  br label %get_position.exit

72:                                               ; preds = %37
  br i1 %40, label %73, label %get_position.exit

73:                                               ; preds = %72
  %74 = getelementptr inbounds nuw i8, ptr %1, i64 10
  %75 = load i8, ptr %74, align 2, !range !4, !noundef !5
  %76 = trunc nuw i8 %75 to i1
  %77 = select i1 %76, double 0.000000e+00, double 1.000000e+00
  br label %get_position.exit

get_position.exit:                                ; preds = %41, %42, %49, %57, %62, %63, %67, %72, %73
  %.1.i21 = phi double [ %61, %57 ], [ 5.000000e-01, %41 ], [ 5.000000e-01, %42 ], [ 5.000000e-01, %49 ], [ 1.000000e+00, %63 ], [ %71, %67 ], [ 0.000000e+00, %72 ], [ %77, %73 ], [ 5.000000e-01, %62 ]
  %78 = fdiv double %.1.i21, %20
  %79 = fadd double %21, %78
  br label %80

80:                                               ; preds = %get_position.exit, %rbound_bsearch.exit
  %.0 = phi double [ %79, %get_position.exit ], [ %21, %rbound_bsearch.exit ]
  ret double %.0
}